target datalayout = "e-m:e-p270:32:32-p271:32:32-p272:64:64-i64:64-i128:128-f80:128-n8:16:32:64-S128"
target triple = "x86_64-unknown-linux-gnu"

%"struct.Assimp::ScenePrivateData" = type <{ ptr, i32, i8, [3 x i8] }>
%struct.aiScene = type { i32, ptr, i32, ptr, i32, ptr, i32, ptr, i32, ptr, i32, ptr, i32, ptr, ptr, %struct.aiString, i32, ptr, ptr }
%struct.aiString = type { i32, [1024 x i8] }
%struct.ExceptionSwallower.45 = type { i8 }

; Function Attrs: noreturn nounwind uwtable
define linkonce_odr hidden void @__clang_call_terminate(ptr noundef %0) #9 comdat {
  %2 = call ptr @__cxa_begin_catch(ptr %0) #3
  call void @_ZSt9terminatev() #20
  unreachable
}

; Function Attrs: mustprogress nounwind uwtable
define linkonce_odr hidden void @_ZNK18ExceptionSwallowerIvEclEv(ptr noundef nonnull align 1 dereferenceable(1) %this) #0 comdat align 2 {
entry:
  %this.addr = alloca ptr, align 8
  store ptr %this, ptr %this.addr, align 8
  ret void
}

; Function Attrs: mustprogress nounwind uwtable
define linkonce_odr hidden noundef ptr @_ZN6Assimp9ScenePrivEPK7aiScene(ptr noundef %in) #0 comdat {
entry:
  %retval = alloca ptr, align 8
  %in.addr = alloca ptr, align 8
  store ptr %in, ptr %in.addr, align 8
  %0 = load ptr, ptr %in.addr, align 8
  %cmp = icmp eq ptr null, %0
  br i1 %cmp, label %if.then, label %if.end

if.then:                                          ; preds = %entry
  store ptr null, ptr %retval, align 8
  br label %return

if.end:                                           ; preds = %entry
  %1 = load ptr, ptr %in.addr, align 8
  %mPrivate = getelementptr inbounds %struct.aiScene, ptr %1, i32 0, i32 18
  %2 = load ptr, ptr %mPrivate, align 8
  store ptr %2, ptr %retval, align 8
  br label %return

return:                                           ; preds = %if.end, %if.then
  %3 = load ptr, ptr %retval, align 8
  ret ptr %3
}

; Function Attrs: mustprogress uwtable
define void @aiReleaseImport(ptr noundef %pScene) #5 personality ptr @__gxx_personality_v0 {
entry:
  %pScene.addr = alloca ptr, align 8
  %priv = alloca ptr, align 8
  %exn.slot = alloca ptr, align 8
  %ehselector.slot = alloca i32, align 4
  %importer = alloca ptr, align 8
  %ref.tmp = alloca %struct.ExceptionSwallower.45, align 1
  store ptr %pScene, ptr %pScene.addr, align 8
  %0 = load ptr, ptr %pScene.addr, align 8
  %tobool = icmp ne ptr %0, null
  br i1 %tobool, label %if.end, label %if.then

if.then:                                          ; preds = %entry
  br label %try.cont

if.end:                                           ; preds = %entry
  %1 = load ptr, ptr %pScene.addr, align 8
  %call = invoke noundef ptr @_ZN6Assimp9ScenePrivEPK7aiScene(ptr noundef %1)
          to label %invoke.cont unwind label %lpad

invoke.cont:                                      ; preds = %if.end
  store ptr %call, ptr %priv, align 8
  %2 = load ptr, ptr %priv, align 8
  %tobool1 = icmp ne ptr %2, null
  br i1 %tobool1, label %lor.lhs.false, label %if.then3

lor.lhs.false:                                    ; preds = %invoke.cont
  %3 = load ptr, ptr %priv, align 8
  %mOrigImporter = getelementptr inbounds %"struct.Assimp::ScenePrivateData", ptr %3, i32 0, i32 0
  %4 = load ptr, ptr %mOrigImporter, align 8
  %tobool2 = icmp ne ptr %4, null
  br i1 %tobool2, label %if.else, label %if.then3

if.then3:                                         ; preds = %lor.lhs.false, %invoke.cont
  %5 = load ptr, ptr %pScene.addr, align 8
  %isnull = icmp eq ptr %5, null
  br i1 %isnull, label %delete.end, label %delete.notnull

delete.notnull:                                   ; preds = %if.then3
  call void @_ZN7aiSceneD1Ev(ptr noundef nonnull align 8 dereferenceable(1168) %5) #3
  call void @_ZdlPv(ptr noundef %5) #22
  br label %delete.end

delete.end:                                       ; preds = %delete.notnull, %if.then3
  br label %if.end8

lpad:                                             ; preds = %if.end
  %6 = landingpad { ptr, i32 }
          catch ptr null
  %7 = extractvalue { ptr, i32 } %6, 0
  store ptr %7, ptr %exn.slot, align 8
  %8 = extractvalue { ptr, i32 } %6, 1
  store i32 %8, ptr %ehselector.slot, align 4
  br label %catch

catch:                                            ; preds = %lpad
  %exn = load ptr, ptr %exn.slot, align 8
  %9 = call ptr @__cxa_begin_catch(ptr %exn) #3
  invoke void @_ZNK18ExceptionSwallowerIvEclEv(ptr noundef nonnull align 1 dereferenceable(1) %ref.tmp)
          to label %invoke.cont10 unwind label %lpad9

invoke.cont10:                                    ; preds = %catch
  call void @__cxa_end_catch()
  br label %try.cont

if.else:                                          ; preds = %lor.lhs.false
  %10 = load ptr, ptr %priv, align 8
  %mOrigImporter4 = getelementptr inbounds %"struct.Assimp::ScenePrivateData", ptr %10, i32 0, i32 0
  %11 = load ptr, ptr %mOrigImporter4, align 8
  store ptr %11, ptr %importer, align 8
  %12 = load ptr, ptr %importer, align 8
  %isnull5 = icmp eq ptr %12, null
  br i1 %isnull5, label %delete.end7, label %delete.notnull6

delete.notnull6:                                  ; preds = %if.else
  call void @_ZN6Assimp8ImporterD1Ev(ptr noundef nonnull align 8 dereferenceable(8) %12) #3
  call void @_ZdlPv(ptr noundef %12) #22
  br label %delete.end7

delete.end7:                                      ; preds = %delete.notnull6, %if.else
  br label %if.end8

if.end8:                                          ; preds = %delete.end7, %delete.end
  br label %try.cont

lpad9:                                            ; preds = %catch
  %13 = landingpad { ptr, i32 }
          cleanup
  %14 = extractvalue { ptr, i32 } %13, 0
  store ptr %14, ptr %exn.slot, align 8
  %15 = extractvalue { ptr, i32 } %13, 1
  store i32 %15, ptr %ehselector.slot, align 4
  invoke void @__cxa_end_catch()
          to label %invoke.cont11 unwind label %terminate.lpad

invoke.cont11:                                    ; preds = %lpad9
  br label %eh.resume

try.cont:                                         ; preds = %if.end8, %invoke.cont10, %if.then
  ret void

eh.resume:                                        ; preds = %invoke.cont11
  %exn12 = load ptr, ptr %exn.slot, align 8
  %sel = load i32, ptr %ehselector.slot, align 4
  %lpad.val = insertvalue { ptr, i32 } poison, ptr %exn12, 0
  %lpad.val13 = insertvalue { ptr, i32 } %lpad.val, i32 %sel, 1
  resume { ptr, i32 } %lpad.val13

terminate.lpad:                                   ; preds = %lpad9
  %16 = landingpad { ptr, i32 }
          catch ptr null
  %17 = extractvalue { ptr, i32 } %16, 0
  call void @__clang_call_terminate(ptr %17) #20
  unreachable
}