; Function Attrs: mustprogress nounwind uwtable
define void @aiReleaseImport(ptr noundef %pScene) local_unnamed_addr #0 personality ptr @__gxx_personality_v0 {
entry:
  %tobool.not = icmp eq ptr %pScene, null
  br i1 %tobool.not, label %try.cont, label %_ZN6Assimp9ScenePrivEPK7aiScene.exit

_ZN6Assimp9ScenePrivEPK7aiScene.exit:             ; preds = %entry
  %mPrivate.i = getelementptr inbounds i8, ptr %pScene, i64 1160
  %0 = load ptr, ptr %mPrivate.i, align 8
  %tobool1.not = icmp eq ptr %0, null
  br i1 %tobool1.not, label %delete.notnull, label %lor.lhs.false

lor.lhs.false:                                    ; preds = %_ZN6Assimp9ScenePrivEPK7aiScene.exit
  %1 = load ptr, ptr %0, align 8
  %tobool2.not = icmp eq ptr %1, null
  br i1 %tobool2.not, label %delete.notnull, label %delete.notnull6

delete.notnull:                                   ; preds = %_ZN6Assimp9ScenePrivEPK7aiScene.exit, %lor.lhs.false
  tail call void @_ZN7aiSceneD1Ev(ptr noundef nonnull align 8 dereferenceable(1168) %pScene) #44
  br label %try.cont.sink.split

delete.notnull6:                                  ; preds = %lor.lhs.false
  tail call void @_ZN6Assimp8ImporterD1Ev(ptr noundef nonnull align 8 dereferenceable(8) %1) #44
  br label %try.cont.sink.split

try.cont.sink.split:                              ; preds = %delete.notnull6, %delete.notnull
  %pScene.sink = phi ptr [ %pScene, %delete.notnull ], [ %1, %delete.notnull6 ]
  tail call void @_ZdlPv(ptr noundef nonnull %pScene.sink) #42
  br label %try.cont

try.cont:                                         ; preds = %try.cont.sink.split, %entry
  ret void
}